target datalayout = "e-m:e-p270:32:32-p271:32:32-p272:64:64-i64:64-i128:128-f80:128-n8:16:32:64-S128"
target triple = "x86_64-pc-linux-gnu"

%"class.icu_77::UnicodeString" = type { %"class.icu_77::Replaceable", %"union.icu_77::UnicodeString::StackBufferOrFields" }
%"class.icu_77::Replaceable" = type { %"class.icu_77::UObject" }
%"class.icu_77::UObject" = type { ptr }
%"union.icu_77::UnicodeString::StackBufferOrFields" = type { %struct.anon.0, [32 x i8] }
%struct.anon.0 = type { i16, i32, i32, ptr }
%"class.icu_77::SimpleDateFormat" = type { %"class.icu_77::DateFormat", %"class.icu_77::UnicodeString", %"class.icu_77::UnicodeString", %"class.icu_77::UnicodeString", %"class.icu_77::Locale", ptr, ptr, double, i8, i8, i8, i32, ptr, ptr, i8, ptr }
%"class.icu_77::DateFormat" = type { %"class.icu_77::Format", ptr, ptr, %"class.icu_77::EnumSet", i32 }
%"class.icu_77::Format" = type { %"class.icu_77::UObject", ptr, ptr }
%"class.icu_77::EnumSet" = type { i32 }
%"class.icu_77::Locale" = type <{ %"class.icu_77::UObject", [12 x i8], [6 x i8], [4 x i8], [2 x i8], i32, [4 x i8], ptr, [157 x i8], [3 x i8], ptr, i8, [7 x i8] }>

; Function Attrs: mustprogress uwtable
define void @_ZN6icu_7716SimpleDateFormat24initializeDefaultCenturyEv(ptr noundef nonnull align 8 dereferenceable(528) %0) #1 align 2 {
  %2 = alloca ptr, align 8
  store ptr %0, ptr %2, align 8, !tbaa !23
  %3 = load ptr, ptr %2, align 8
  %4 = getelementptr inbounds nuw %"class.icu_77::DateFormat", ptr %3, i32 0, i32 1
  %5 = load ptr, ptr %4, align 8, !tbaa !79
  %6 = icmp ne ptr %5, null
  br i1 %6, label %7, label %37

7:                                                ; preds = %1
  %8 = getelementptr inbounds nuw %"class.icu_77::DateFormat", ptr %3, i32 0, i32 1
  %9 = load ptr, ptr %8, align 8, !tbaa !79
  %10 = load ptr, ptr %9, align 8, !tbaa !63
  %11 = getelementptr inbounds ptr, ptr %10, i64 51
  %12 = load ptr, ptr %11, align 8
  %13 = call noundef signext i8 %12(ptr noundef nonnull align 8 dereferenceable(192) %9)
  %14 = getelementptr inbounds nuw %"class.icu_77::SimpleDateFormat", ptr %3, i32 0, i32 14
  store i8 %13, ptr %14, align 8, !tbaa !86
  %15 = getelementptr inbounds nuw %"class.icu_77::SimpleDateFormat", ptr %3, i32 0, i32 14
  %16 = load i8, ptr %15, align 8, !tbaa !86
  %17 = icmp ne i8 %16, 0
  br i1 %17, label %18, label %33

18:                                               ; preds = %7
  %19 = getelementptr inbounds nuw %"class.icu_77::DateFormat", ptr %3, i32 0, i32 1
  %20 = load ptr, ptr %19, align 8, !tbaa !79
  %21 = load ptr, ptr %20, align 8, !tbaa !63
  %22 = getelementptr inbounds ptr, ptr %21, i64 52
  %23 = load ptr, ptr %22, align 8
  %24 = call noundef double %23(ptr noundef nonnull align 8 dereferenceable(192) %20)
  %25 = getelementptr inbounds nuw %"class.icu_77::SimpleDateFormat", ptr %3, i32 0, i32 7
  store double %24, ptr %25, align 8, !tbaa !87
  %26 = getelementptr inbounds nuw %"class.icu_77::DateFormat", ptr %3, i32 0, i32 1
  %27 = load ptr, ptr %26, align 8, !tbaa !79
  %28 = load ptr, ptr %27, align 8, !tbaa !63
  %29 = getelementptr inbounds ptr, ptr %28, i64 53
  %30 = load ptr, ptr %29, align 8
  %31 = call noundef i32 %30(ptr noundef nonnull align 8 dereferenceable(192) %27)
  %32 = getelementptr inbounds nuw %"class.icu_77::SimpleDateFormat", ptr %3, i32 0, i32 11
  store i32 %31, ptr %32, align 4, !tbaa !88
  br label %36

33:                                               ; preds = %7
  %34 = getelementptr inbounds nuw %"class.icu_77::SimpleDateFormat", ptr %3, i32 0, i32 7
  store double 0x10000000000000, ptr %34, align 8, !tbaa !87
  %35 = getelementptr inbounds nuw %"class.icu_77::SimpleDateFormat", ptr %3, i32 0, i32 11
  store i32 -1, ptr %35, align 4, !tbaa !88
  br label %36

36:                                               ; preds = %33, %18
  br label %37

37:                                               ; preds = %36, %1
  ret void
}