; Function Attrs: mustprogress uwtable
define void @_ZN6icu_7716SimpleDateFormat24initializeDefaultCenturyEv(ptr noundef nonnull align 8 captures(none) dereferenceable(528) %0) local_unnamed_addr #1 align 2 {
  %2 = getelementptr inbounds nuw i8, ptr %0, i64 24
  %3 = load ptr, ptr %2, align 8, !tbaa !52
  %.not = icmp eq ptr %3, null
  br i1 %.not, label %25, label %4

4:                                                ; preds = %1
  %5 = load ptr, ptr %3, align 8, !tbaa !44
  %6 = getelementptr inbounds nuw i8, ptr %5, i64 408
  %7 = load ptr, ptr %6, align 8
  %8 = tail call noundef signext i8 %7(ptr noundef nonnull align 8 dereferenceable(192) %3)
  %9 = getelementptr inbounds nuw i8, ptr %0, i64 512
  store i8 %8, ptr %9, align 8, !tbaa !53
  %.not1 = icmp eq i8 %8, 0
  br i1 %.not1, label %22, label %10

10:                                               ; preds = %4
  %11 = load ptr, ptr %2, align 8, !tbaa !52
  %12 = load ptr, ptr %11, align 8, !tbaa !44
  %13 = getelementptr inbounds nuw i8, ptr %12, i64 416
  %14 = load ptr, ptr %13, align 8
  %15 = tail call noundef double %14(ptr noundef nonnull align 8 dereferenceable(192) %11)
  %16 = getelementptr inbounds nuw i8, ptr %0, i64 480
  store double %15, ptr %16, align 8, !tbaa !54
  %17 = load ptr, ptr %2, align 8, !tbaa !52
  %18 = load ptr, ptr %17, align 8, !tbaa !44
  %19 = getelementptr inbounds nuw i8, ptr %18, i64 424
  %20 = load ptr, ptr %19, align 8
  %21 = tail call noundef i32 %20(ptr noundef nonnull align 8 dereferenceable(192) %17)
  br label %.sink.split

22:                                               ; preds = %4
  %23 = getelementptr inbounds nuw i8, ptr %0, i64 480
  store double 0x10000000000000, ptr %23, align 8, !tbaa !54
  br label %.sink.split

.sink.split:                                      ; preds = %22, %10
  %.sink = phi i32 [ %21, %10 ], [ -1, %22 ]
  %24 = getelementptr inbounds nuw i8, ptr %0, i64 492
  store i32 %.sink, ptr %24, align 4, !tbaa !55
  br label %25

25:                                               ; preds = %.sink.split, %1
  ret void
}